; Function Attrs: mustprogress uwtable
define void @u_fflush_77(ptr noundef %0) local_unnamed_addr #0 {
  tail call void @_Z23ufile_flush_translit_77P5UFILE(ptr noundef %0)
  tail call void @_Z17ufile_flush_io_77P5UFILE(ptr noundef %0)
  %2 = getelementptr inbounds nuw i8, ptr %0, i64 8
  %3 = load ptr, ptr %2, align 8, !tbaa !17
  %.not = icmp eq ptr %3, null
  br i1 %.not, label %6, label %4

4:                                                ; preds = %1
  %5 = tail call i32 @fflush(ptr noundef nonnull %3)
  br label %14

6:                                                ; preds = %1
  %7 = getelementptr inbounds nuw i8, ptr %0, i64 24
  %8 = load ptr, ptr %7, align 8, !tbaa !19
  %9 = getelementptr inbounds nuw i8, ptr %0, i64 32
  %10 = load ptr, ptr %9, align 8, !tbaa !20
  %11 = icmp ult ptr %8, %10
  br i1 %11, label %12, label %14

12:                                               ; preds = %6
  %13 = getelementptr inbounds nuw i8, ptr %8, i64 2
  store ptr %13, ptr %7, align 8, !tbaa !19
  store i16 0, ptr %8, align 2, !tbaa !27
  br label %14

14:                                               ; preds = %6, %12, %4
  ret void
}